target datalayout = "e-m:e-p270:32:32-p271:32:32-p272:64:64-i64:64-i128:128-f80:128-n8:16:32:64-S128"
target triple = "x86_64-pc-linux-gnu"

%struct.pollfd = type { i32, i16, i16 }

; Function Attrs: nounwind uwtable
define hidden i32 @NET_Wait(ptr noundef %0, i32 noundef %1, i32 noundef %2, i32 noundef %3) #0 {
  %5 = alloca i32, align 4
  %6 = alloca ptr, align 8
  %7 = alloca i32, align 4
  %8 = alloca i32, align 4
  %9 = alloca i32, align 4
  %10 = alloca i64, align 8
  %11 = alloca i64, align 8
  %12 = alloca i32, align 4
  %13 = alloca i64, align 8
  %14 = alloca %struct.pollfd, align 4
  store ptr %0, ptr %6, align 8
  store i32 %1, ptr %7, align 4
  store i32 %2, ptr %8, align 4
  store i32 %3, ptr %9, align 4
  %15 = load ptr, ptr %6, align 8
  %16 = call i64 @JVM_NanoTime(ptr noundef %15, ptr noundef null)
  store i64 %16, ptr %10, align 8
  %17 = load i32, ptr %9, align 4
  %18 = sext i32 %17 to i64
  %19 = mul nsw i64 %18, 1000000
  store i64 %19, ptr %11, align 8
  br label %20

20:                                               ; preds = %77, %4
  %21 = load i32, ptr %7, align 4
  %22 = getelementptr inbounds %struct.pollfd, ptr %14, i32 0, i32 0
  store i32 %21, ptr %22, align 4
  %23 = getelementptr inbounds %struct.pollfd, ptr %14, i32 0, i32 1
  store i16 0, ptr %23, align 4
  %24 = load i32, ptr %8, align 4
  %25 = and i32 %24, 1
  %26 = icmp ne i32 %25, 0
  br i1 %26, label %27, label %33

27:                                               ; preds = %20
  %28 = getelementptr inbounds %struct.pollfd, ptr %14, i32 0, i32 1
  %29 = load i16, ptr %28, align 4
  %30 = sext i16 %29 to i32
  %31 = or i32 %30, 1
  %32 = trunc i32 %31 to i16
  store i16 %32, ptr %28, align 4
  br label %33

33:                                               ; preds = %27, %20
  %34 = load i32, ptr %8, align 4
  %35 = and i32 %34, 2
  %36 = icmp ne i32 %35, 0
  br i1 %36, label %37, label %43

37:                                               ; preds = %33
  %38 = getelementptr inbounds %struct.pollfd, ptr %14, i32 0, i32 1
  %39 = load i16, ptr %38, align 4
  %40 = sext i16 %39 to i32
  %41 = or i32 %40, 4
  %42 = trunc i32 %41 to i16
  store i16 %42, ptr %38, align 4
  br label %43

43:                                               ; preds = %37, %33
  %44 = load i32, ptr %8, align 4
  %45 = and i32 %44, 4
  %46 = icmp ne i32 %45, 0
  br i1 %46, label %47, label %53

47:                                               ; preds = %43
  %48 = getelementptr inbounds %struct.pollfd, ptr %14, i32 0, i32 1
  %49 = load i16, ptr %48, align 4
  %50 = sext i16 %49 to i32
  %51 = or i32 %50, 4
  %52 = trunc i32 %51 to i16
  store i16 %52, ptr %48, align 4
  br label %53

53:                                               ; preds = %47, %43
  %54 = call ptr @__errno_location() #8
  store i32 0, ptr %54, align 4
  %55 = load i64, ptr %11, align 8
  %56 = sdiv i64 %55, 1000000
  %57 = trunc i64 %56 to i32
  %58 = call i32 @poll(ptr noundef %14, i64 noundef 1, i32 noundef %57)
  store i32 %58, ptr %12, align 4
  %59 = load ptr, ptr %6, align 8
  %60 = call i64 @JVM_NanoTime(ptr noundef %59, ptr noundef null)
  store i64 %60, ptr %13, align 8
  %61 = load i64, ptr %13, align 8
  %62 = load i64, ptr %10, align 8
  %63 = sub nsw i64 %61, %62
  %64 = load i64, ptr %11, align 8
  %65 = sub nsw i64 %64, %63
  store i64 %65, ptr %11, align 8
  %66 = load i64, ptr %11, align 8
  %67 = icmp slt i64 %66, 1000000
  br i1 %67, label %68, label %72

68:                                               ; preds = %53
  %69 = load i32, ptr %12, align 4
  %70 = icmp sgt i32 %69, 0
  %71 = select i1 %70, i32 0, i32 -1
  store i32 %71, ptr %5, align 4
  br label %82

72:                                               ; preds = %53
  %73 = load i64, ptr %13, align 8
  store i64 %73, ptr %10, align 8
  %74 = load i32, ptr %12, align 4
  %75 = icmp sgt i32 %74, 0
  br i1 %75, label %76, label %77

76:                                               ; preds = %72
  br label %78

77:                                               ; preds = %72
  br label %20

78:                                               ; preds = %76
  %79 = load i64, ptr %11, align 8
  %80 = sdiv i64 %79, 1000000
  %81 = trunc i64 %80 to i32
  store i32 %81, ptr %5, align 4
  br label %82

82:                                               ; preds = %78, %68
  %83 = load i32, ptr %5, align 4
  ret i32 %83
}