; Function Attrs: nounwind uwtable
define hidden i32 @NET_Wait(ptr noundef %0, i32 noundef %1, i32 noundef %2, i32 noundef %3) local_unnamed_addr #0 {
  %5 = alloca %struct.pollfd, align 4
  %6 = tail call i64 @JVM_NanoTime(ptr noundef %0, ptr noundef null) #13
  %7 = sext i32 %3 to i64
  %8 = mul nsw i64 %7, 1000000
  %9 = getelementptr inbounds i8, ptr %5, i64 4
  %10 = trunc i32 %2 to i16
  %spec.select = and i16 %10, 1
  %11 = shl i16 %10, 1
  %12 = and i16 %11, 4
  %spec.select21 = or disjoint i16 %spec.select, %12
  %13 = and i32 %2, 4
  %.not20 = icmp eq i32 %13, 0
  %14 = tail call ptr @__errno_location() #14
  br i1 %.not20, label %.split.us, label %.split.preheader

.split.preheader:                                 ; preds = %4
  %15 = or disjoint i16 %spec.select, 4
  br label %.split

.split.us:                                        ; preds = %4, %22
  %.017.us = phi i64 [ %20, %22 ], [ %8, %4 ]
  %.016.us = phi i64 [ %19, %22 ], [ %6, %4 ]
  store i32 %1, ptr %5, align 4
  store i16 %spec.select21, ptr %9, align 4
  store i32 0, ptr %14, align 4
  %16 = sdiv i64 %.017.us, 1000000
  %17 = trunc i64 %16 to i32
  %18 = call i32 @poll(ptr noundef nonnull %5, i64 noundef 1, i32 noundef %17) #13
  %19 = call i64 @JVM_NanoTime(ptr noundef %0, ptr noundef null) #13
  %.neg.us = sub i64 %.016.us, %19
  %20 = add i64 %.neg.us, %.017.us
  %21 = icmp slt i64 %20, 1000000
  br i1 %21, label %.split26.us, label %22

22:                                               ; preds = %.split.us
  %23 = icmp sgt i32 %18, 0
  br i1 %23, label %.split28.us, label %.split.us

.split:                                           ; preds = %.split.preheader, %32
  %.017 = phi i64 [ %28, %32 ], [ %8, %.split.preheader ]
  %.016 = phi i64 [ %27, %32 ], [ %6, %.split.preheader ]
  store i32 %1, ptr %5, align 4
  store i16 %15, ptr %9, align 4
  store i32 0, ptr %14, align 4
  %24 = sdiv i64 %.017, 1000000
  %25 = trunc i64 %24 to i32
  %26 = call i32 @poll(ptr noundef nonnull %5, i64 noundef 1, i32 noundef %25) #13
  %27 = call i64 @JVM_NanoTime(ptr noundef %0, ptr noundef null) #13
  %.neg = sub i64 %.016, %27
  %28 = add i64 %.neg, %.017
  %29 = icmp slt i64 %28, 1000000
  br i1 %29, label %.split26.us, label %32

.split26.us:                                      ; preds = %.split, %.split.us
  %.us-phi = phi i32 [ %18, %.split.us ], [ %26, %.split ]
  %30 = icmp slt i32 %.us-phi, 1
  %31 = sext i1 %30 to i32
  br label %36

32:                                               ; preds = %.split
  %33 = icmp sgt i32 %26, 0
  br i1 %33, label %.split28.us, label %.split

.split28.us:                                      ; preds = %32, %22
  %.us-phi29 = phi i64 [ %20, %22 ], [ %28, %32 ]
  %34 = udiv i64 %.us-phi29, 1000000
  %35 = trunc i64 %34 to i32
  br label %36

36:                                               ; preds = %.split28.us, %.split26.us
  %.0 = phi i32 [ %31, %.split26.us ], [ %35, %.split28.us ]
  ret i32 %.0
}